EXPORTS
    ClientCommand @1 DATA
    Cmd_AddCommand @2 DATA
    Com_Printf @3 DATA
    G_LogPrintf @4 DATA
    Scr_ExecEntThread @5 DATA
    Scr_ExecThread @6 DATA
    Scr_FreeThread @7 DATA
    _Z10phpversionv @8
    _Z10trap_TraceP7trace_tPKfS2_S2_S2_ii @9
    _Z11ClientSpawniii @10
    _Z11PmoveSinglei @11
    _Z11Sys_LoadDllPKcPcPPFiizES3_ @12
    _Z11setVelocityiPf @13
    _Z12dl_whitelistv @14
    _Z12stackPushInti @15
    _Z12sub_20018CE0i @16
    _Z12sub_200198F0i @17
    _Z12sub_2001E5B0i @18
    _Z12sub_20032190i @19
    _Z12sub_200355C0v @20
    _Z12trap_FS_ReadPvii @21
    _Z13func_20002FA0iiiiiiii @22
    _Z13stackPushBooli @23
    _Z13trap_FS_WritePKvii @24
    _Z14PatchCvarCheckv @25
    _Z14trap_FS_RenamePKcS0_ @26
    _Z15G_SetPlayerSizev @27
    _Z15getPlayerAnglesi @28
    _Z15myClientCommandv @29
    _Z15stackPushStringPc @30
    _Z15stackPushVectorPf @31
    _Z15trap_DropClientiPKc @32
    _Z15trap_LinkEntityPi @33
    _Z16stackGetParamIntiPi @34
    _Z16stackPushString2Pc @35
    _Z16trap_CM_BoxTraceP7trace_tPKfS2_S2_S2_ii @36
    _Z17trap_FS_FOpenFilePKcPi8fsMode_t @37
    _Z17trap_UnlinkEntityPi @38
    _Z18trap_FS_FCloseFilei @39
    _Z18trap_getClientPingi @40
    _Z18trap_setBrushModeli @41
    _Z19stackGetParamStringiPPc @42
    _Z19stackGetParamVectoriPf @43
    _Z19trap_AddDebugStringPfS_iPc @44
    _Z20enableGlobalBunnyhopv @45
    _Z23GScr_LoadGameTypeScriptv @46
    _Z4bhopv @47
    _Z7loadscrv @48
    _Z8G_DamagePiS_S_PfS0_iii @49
    _Z8MyThreadPv@4 @50
    _Z8getStackv @51
    _Z9entitygscii @52
    _Z9fDownloadPiS_ @53
    _Z9fRedirectPiS_ @54
    _Z9trap_Argcv @55
    _Z9trap_ArgviPci @56
    callbackPlayerDamage @57 DATA
    callbackTest @58 DATA
    cracking_hook_call @59
    cracking_hook_function @60
    cracking_nop @61
    cracking_write_hex @62
    dword_20031760 @63 DATA
    g_entities @64 DATA
    g_hModule @65 DATA
    g_threadID @66 DATA
    game_mp @67 DATA
    hG_Damage @68 DATA
    hexToBuffer @69
    loadCallback @70 DATA
    players @71 DATA
    playerstates @72 DATA
    singleHexToNumber @73
    sub_458680 @74 DATA
    sub_458860 @75 DATA
    sub_4686D0 @76 DATA
